target datalayout = "e-m:e-p270:32:32-p271:32:32-p272:64:64-i64:64-i128:128-f80:128-n8:16:32:64-S128"
target triple = "x86_64-pc-linux-gnu"

%struct.AVChannelLayout = type { i32, i32, %union.anon, ptr }
%union.anon = type { i64 }
%struct.AVCodecContext = type { ptr, i32, i32, ptr, i32, i32, ptr, ptr, ptr, i64, i32, i32, ptr, i32, %struct.AVRational, %struct.AVRational, %struct.AVRational, i32, i32, i32, i32, i32, %struct.AVRational, i32, i32, i32, i32, i32, i32, i32, i32, i32, i32, i32, ptr, ptr, i32, float, float, float, float, float, float, float, float, float, i32, i32, i32, i32, i32, i32, i32, i32, i32, i32, i32, i32, ptr, ptr, ptr, i32, i32, i32, i32, i32, i32, i32, i32, i32, i32, %struct.AVChannelLayout, i32, i32, i32, i32, i32, i32, i32, i32, ptr, i32, i32, i32, float, float, i32, i32, i32, i32, i32, ptr, i64, i64, float, float, i32, i32, ptr, ptr, i32, i32, i32, i32, i32, ptr, ptr, ptr, ptr, i32, i32, [8 x i64], i32, i32, i32, i32, i32, i32, i32, ptr, ptr, i32, i32, i32, i32, i32, i32, i32, i32, i32, i32, ptr, ptr, i32, i32, ptr, ptr, ptr, ptr, i32, i32, i64, i32, i32, i64, ptr, i64, ptr, i32, ptr, i32 }
%struct.AVRational = type { i32, i32 }
%struct.OpusEncContext = type { ptr, %struct.OpusEncOptions, %struct.OpusPsyContext, ptr, %struct.AudioFrameQueue, ptr, [4 x ptr], [4 x ptr], ptr, %struct.FFBufQueue, [64 x i8], i32, %struct.OpusPacketInfo, i32, ptr, ptr, [2 x [21 x float]], [8 x i8], [2048 x float] }
%struct.OpusEncOptions = type { float, i32 }
%struct.OpusPsyContext = type { ptr, ptr, ptr, ptr, [2 x [21 x %struct.OpusBandExcitation]], [2 x [21 x %struct.FFBesselFilter]], [2 x [21 x %struct.FFBesselFilter]], [146 x ptr], i32, [4 x ptr], [4 x ptr], [4 x ptr], i32, [12 x i8], [2048 x float], float, i64, i64, %struct.OpusPacketInfo, i32, i32, i32, float, ptr, i32, [12 x i8] }
%struct.OpusBandExcitation = type { float, float, float }
%struct.FFBesselFilter = type { [3 x float], [2 x float], [3 x float], [3 x float] }
%struct.AudioFrameQueue = type { ptr, i32, i32, ptr, i32, i32 }
%struct.FFBufQueue = type { [145 x ptr], i16, i16 }
%struct.OpusPacketInfo = type { i32, i32, i32, i32 }

@.str.19 = private unnamed_addr constant [30 x i8] c"Assertion %s failed at %s:%d\0A\00", align 1
@.str.20 = private unnamed_addr constant [17 x i8] c"queue->available\00", align 1
@.str.21 = private unnamed_addr constant [28 x i8] c"./libavfilter/bufferqueue.h\00", align 1

; Function Attrs: inlinehint nounwind uwtable
define internal ptr @ff_bufqueue_get(ptr noundef %0) #6 {
  %2 = alloca ptr, align 8
  %3 = alloca ptr, align 8
  store ptr %0, ptr %2, align 8, !tbaa !96
  call void @llvm.lifetime.start.p0(i64 8, ptr %3) #11
  %4 = load ptr, ptr %2, align 8, !tbaa !96
  %5 = getelementptr inbounds nuw %struct.FFBufQueue, ptr %4, i32 0, i32 0
  %6 = load ptr, ptr %2, align 8, !tbaa !96
  %7 = getelementptr inbounds nuw %struct.FFBufQueue, ptr %6, i32 0, i32 1
  %8 = load i16, ptr %7, align 8, !tbaa !97
  %9 = zext i16 %8 to i64
  %10 = getelementptr inbounds nuw [145 x ptr], ptr %5, i64 0, i64 %9
  %11 = load ptr, ptr %10, align 8, !tbaa !79
  store ptr %11, ptr %3, align 8, !tbaa !79
  br label %12

12:                                               ; preds = %1
  %13 = load ptr, ptr %2, align 8, !tbaa !96
  %14 = getelementptr inbounds nuw %struct.FFBufQueue, ptr %13, i32 0, i32 2
  %15 = load i16, ptr %14, align 2, !tbaa !98
  %16 = icmp ne i16 %15, 0
  br i1 %16, label %18, label %17

17:                                               ; preds = %12
  call void (ptr, i32, ptr, ...) @av_log(ptr noundef null, i32 noundef 0, ptr noundef @.str.19, ptr noundef @.str.20, ptr noundef @.str.21, i32 noundef 101)
  call void @abort() #13
  unreachable

18:                                               ; preds = %12
  br label %19

19:                                               ; preds = %18
  br label %20

20:                                               ; preds = %19
  %21 = load ptr, ptr %2, align 8, !tbaa !96
  %22 = getelementptr inbounds nuw %struct.FFBufQueue, ptr %21, i32 0, i32 2
  %23 = load i16, ptr %22, align 2, !tbaa !98
  %24 = add i16 %23, -1
  store i16 %24, ptr %22, align 2, !tbaa !98
  %25 = load ptr, ptr %2, align 8, !tbaa !96
  %26 = getelementptr inbounds nuw %struct.FFBufQueue, ptr %25, i32 0, i32 0
  %27 = load ptr, ptr %2, align 8, !tbaa !96
  %28 = getelementptr inbounds nuw %struct.FFBufQueue, ptr %27, i32 0, i32 1
  %29 = load i16, ptr %28, align 8, !tbaa !97
  %30 = zext i16 %29 to i64
  %31 = getelementptr inbounds nuw [145 x ptr], ptr %26, i64 0, i64 %30
  store ptr null, ptr %31, align 8, !tbaa !79
  %32 = load ptr, ptr %2, align 8, !tbaa !96
  %33 = getelementptr inbounds nuw %struct.FFBufQueue, ptr %32, i32 0, i32 1
  %34 = load i16, ptr %33, align 8, !tbaa !97
  %35 = zext i16 %34 to i32
  %36 = add nsw i32 %35, 1
  %37 = srem i32 %36, 145
  %38 = trunc i32 %37 to i16
  %39 = load ptr, ptr %2, align 8, !tbaa !96
  %40 = getelementptr inbounds nuw %struct.FFBufQueue, ptr %39, i32 0, i32 1
  store i16 %38, ptr %40, align 8, !tbaa !97
  %41 = load ptr, ptr %3, align 8, !tbaa !79
  call void @llvm.lifetime.end.p0(i64 8, ptr %3) #11
  ret ptr %41
}

; Function Attrs: inlinehint nounwind uwtable
define internal void @ff_bufqueue_discard_all(ptr noundef %0) #6 {
  %2 = alloca ptr, align 8
  %3 = alloca ptr, align 8
  store ptr %0, ptr %2, align 8, !tbaa !96
  br label %4

4:                                                ; preds = %9, %1
  %5 = load ptr, ptr %2, align 8, !tbaa !96
  %6 = getelementptr inbounds nuw %struct.FFBufQueue, ptr %5, i32 0, i32 2
  %7 = load i16, ptr %6, align 2, !tbaa !98
  %8 = icmp ne i16 %7, 0
  br i1 %8, label %9, label %12

9:                                                ; preds = %4
  call void @llvm.lifetime.start.p0(i64 8, ptr %3) #11
  %10 = load ptr, ptr %2, align 8, !tbaa !96
  %11 = call ptr @ff_bufqueue_get(ptr noundef %10)
  store ptr %11, ptr %3, align 8, !tbaa !79
  call void @av_frame_free(ptr noundef %3)
  call void @llvm.lifetime.end.p0(i64 8, ptr %3) #11
  br label %4, !llvm.loop !179

12:                                               ; preds = %4
  ret void
}

; Function Attrs: cold nounwind optsize uwtable
define internal i32 @opus_encode_end(ptr noundef %0) #0 {
  %2 = alloca ptr, align 8
  %3 = alloca ptr, align 8
  %4 = alloca i32, align 4
  store ptr %0, ptr %2, align 8, !tbaa !4
  call void @llvm.lifetime.start.p0(i64 8, ptr %3) #11
  %5 = load ptr, ptr %2, align 8, !tbaa !4
  %6 = getelementptr inbounds nuw %struct.AVCodecContext, ptr %5, i32 0, i32 6
  %7 = load ptr, ptr %6, align 8, !tbaa !9
  store ptr %7, ptr %3, align 8, !tbaa !29
  call void @llvm.lifetime.start.p0(i64 4, ptr %4) #11
  store i32 0, ptr %4, align 4, !tbaa !52
  br label %8

8:                                                ; preds = %18, %1
  %9 = load i32, ptr %4, align 4, !tbaa !52
  %10 = icmp slt i32 %9, 4
  br i1 %10, label %12, label %11

11:                                               ; preds = %8
  call void @llvm.lifetime.end.p0(i64 4, ptr %4) #11
  br label %21

12:                                               ; preds = %8
  %13 = load ptr, ptr %3, align 8, !tbaa !29
  %14 = getelementptr inbounds nuw %struct.OpusEncContext, ptr %13, i32 0, i32 6
  %15 = load i32, ptr %4, align 4, !tbaa !52
  %16 = sext i32 %15 to i64
  %17 = getelementptr inbounds [4 x ptr], ptr %14, i64 0, i64 %16
  call void @av_tx_uninit(ptr noundef %17)
  br label %18

18:                                               ; preds = %12
  %19 = load i32, ptr %4, align 4, !tbaa !52
  %20 = add nsw i32 %19, 1
  store i32 %20, ptr %4, align 4, !tbaa !52
  br label %8, !llvm.loop !93

21:                                               ; preds = %11
  %22 = load ptr, ptr %3, align 8, !tbaa !29
  %23 = getelementptr inbounds nuw %struct.OpusEncContext, ptr %22, i32 0, i32 8
  call void @ff_celt_pvq_uninit(ptr noundef %23)
  %24 = load ptr, ptr %3, align 8, !tbaa !29
  %25 = getelementptr inbounds nuw %struct.OpusEncContext, ptr %24, i32 0, i32 5
  call void @av_freep(ptr noundef %25)
  %26 = load ptr, ptr %3, align 8, !tbaa !29
  %27 = getelementptr inbounds nuw %struct.OpusEncContext, ptr %26, i32 0, i32 14
  call void @av_freep(ptr noundef %27)
  %28 = load ptr, ptr %3, align 8, !tbaa !29
  %29 = getelementptr inbounds nuw %struct.OpusEncContext, ptr %28, i32 0, i32 15
  call void @av_freep(ptr noundef %29)
  %30 = load ptr, ptr %3, align 8, !tbaa !29
  %31 = getelementptr inbounds nuw %struct.OpusEncContext, ptr %30, i32 0, i32 4
  call void @ff_af_queue_close(ptr noundef %31)
  %32 = load ptr, ptr %3, align 8, !tbaa !29
  %33 = getelementptr inbounds nuw %struct.OpusEncContext, ptr %32, i32 0, i32 2
  %34 = call i32 @ff_opus_psy_end(ptr noundef %33)
  %35 = load ptr, ptr %3, align 8, !tbaa !29
  %36 = getelementptr inbounds nuw %struct.OpusEncContext, ptr %35, i32 0, i32 9
  call void @ff_bufqueue_discard_all(ptr noundef %36)
  call void @llvm.lifetime.end.p0(i64 8, ptr %3) #11
  ret i32 0
}