; Function Attrs: cold nounwind optsize uwtable
define internal noundef i32 @opus_encode_end(ptr noundef readonly captures(none) %0) #0 {
  %2 = alloca ptr, align 8
  %3 = getelementptr inbounds nuw i8, ptr %0, i64 32
  %4 = load ptr, ptr %3, align 8, !tbaa !4
  %5 = getelementptr inbounds nuw i8, ptr %4, i64 13856
  br label %29

6:                                                ; preds = %29
  %7 = getelementptr inbounds nuw i8, ptr %4, i64 13920
  tail call void @ff_celt_pvq_uninit(ptr noundef nonnull %7) #9
  %8 = getelementptr inbounds nuw i8, ptr %4, i64 13848
  tail call void @av_freep(ptr noundef nonnull %8) #9
  %9 = getelementptr inbounds nuw i8, ptr %4, i64 15184
  tail call void @av_freep(ptr noundef nonnull %9) #9
  %10 = getelementptr inbounds nuw i8, ptr %4, i64 15192
  tail call void @av_freep(ptr noundef nonnull %10) #9
  %11 = getelementptr inbounds nuw i8, ptr %4, i64 13816
  tail call void @ff_af_queue_close(ptr noundef nonnull %11) #9
  %12 = getelementptr inbounds nuw i8, ptr %4, i64 16
  %13 = tail call i32 @ff_opus_psy_end(ptr noundef nonnull %12) #9
  %14 = getelementptr inbounds nuw i8, ptr %4, i64 13928
  %15 = getelementptr inbounds nuw i8, ptr %4, i64 15090
  %16 = load i16, ptr %15, align 2, !tbaa !57
  %.not2.i = icmp eq i16 %16, 0
  br i1 %.not2.i, label %ff_bufqueue_discard_all.exit, label %ff_bufqueue_get.exit.lr.ph.i

ff_bufqueue_get.exit.lr.ph.i:                     ; preds = %6
  %17 = getelementptr inbounds nuw i8, ptr %4, i64 15088
  br label %ff_bufqueue_get.exit.i

ff_bufqueue_get.exit.i:                           ; preds = %ff_bufqueue_get.exit.i, %ff_bufqueue_get.exit.lr.ph.i
  %18 = phi i16 [ %16, %ff_bufqueue_get.exit.lr.ph.i ], [ %28, %ff_bufqueue_get.exit.i ]
  call void @llvm.lifetime.start.p0(i64 8, ptr nonnull %2) #9
  %19 = load i16, ptr %17, align 8, !tbaa !58
  %20 = zext i16 %19 to i64
  %21 = getelementptr inbounds nuw [145 x ptr], ptr %14, i64 0, i64 %20
  %22 = load ptr, ptr %21, align 8, !tbaa !59
  %23 = add i16 %18, -1
  store i16 %23, ptr %15, align 2, !tbaa !57
  store ptr null, ptr %21, align 8, !tbaa !59
  %24 = zext i16 %19 to i32
  %25 = add nuw nsw i32 %24, 1
  %26 = urem i32 %25, 145
  %27 = trunc nuw nsw i32 %26 to i16
  store i16 %27, ptr %17, align 8, !tbaa !58
  store ptr %22, ptr %2, align 8, !tbaa !59
  call void @av_frame_free(ptr noundef nonnull %2) #9
  call void @llvm.lifetime.end.p0(i64 8, ptr nonnull %2) #9
  %28 = load i16, ptr %15, align 2, !tbaa !57
  %.not.i = icmp eq i16 %28, 0
  br i1 %.not.i, label %ff_bufqueue_discard_all.exit, label %ff_bufqueue_get.exit.i, !llvm.loop !138

ff_bufqueue_discard_all.exit:                     ; preds = %ff_bufqueue_get.exit.i, %6
  ret i32 0

29:                                               ; preds = %1, %29
  %indvars.iv = phi i64 [ 0, %1 ], [ %indvars.iv.next, %29 ]
  %30 = getelementptr inbounds nuw [4 x ptr], ptr %5, i64 0, i64 %indvars.iv
  tail call void @av_tx_uninit(ptr noundef nonnull %30) #9
  %indvars.iv.next = add nuw nsw i64 %indvars.iv, 1
  %exitcond.not = icmp eq i64 %indvars.iv.next, 4
  br i1 %exitcond.not, label %6, label %29, !llvm.loop !139
}